
startup.o:     file format elf32-littlearm


Disassembly of section .text:

00000000 <ExceptionVectors>:
   0:	ea00001e 	b	80 <ResetHandler>
   4:	eafffffe 	b	4 <ExceptionVectors+0x4>
   8:	eafffffe 	b	8 <ExceptionVectors+0x8>
   c:	eafffffe 	b	c <ExceptionVectors+0xc>
  10:	eafffffe 	b	10 <ExceptionVectors+0x10>
  14:	e1a00000 	nop			; (mov r0, r0)
  18:	eafffffe 	b	18 <ExceptionVectors+0x18>
  1c:	eafffffe 	b	1c <ExceptionVectors+0x1c>
  20:	e1a00000 	nop			; (mov r0, r0)

00000024 <ExecutableVersionInfo>:
  24:	33323135 	teqcc	r2, #1073741837	; 0x4000000d
  28:	12052009 	andne	r2, r5, #9
  2c:	4153504e 	cmpmi	r3, lr, asr #32

00000030 <__Fuses>:
  30:	00000001 	andeq	r0, r0, r1

00000034 <__OBM_Size>:
  34:	00000000 	andeq	r0, r0, r0

00000038 <__OSCR0>:
  38:	00000000 	andeq	r0, r0, r0

0000003c <__TIM_location>:
  3c:	d1008000 	mrsle	r8, (UNDEF: 0)

00000040 <__TBR_version>:
  40:	00000000 	andeq	r0, r0, r0
  44:	e1a00000 	nop			; (mov r0, r0)
  48:	e1a00000 	nop			; (mov r0, r0)
  4c:	e1a00000 	nop			; (mov r0, r0)
  50:	e1a00000 	nop			; (mov r0, r0)
  54:	e1a00000 	nop			; (mov r0, r0)
  58:	e1a00000 	nop			; (mov r0, r0)
  5c:	e1a00000 	nop			; (mov r0, r0)

00000060 <RedirectionVectors>:
  60:	00000080 	andeq	r0, r0, r0, lsl #1
	...

00000080 <ResetHandler>:
  80:	e3a0320b 	mov	r3, #-1342177280	; 0xb0000000
  84:	e3a04001 	mov	r4, #1
  88:	e5834120 	str	r4, [r3, #288]	; 0x120

0000008c <mcu0>:
  8c:	e59341b0 	ldr	r4, [r3, #432]	; 0x1b0
  90:	e3140001 	tst	r4, #1
  94:	0afffffc 	beq	8c <mcu0>
  98:	e59f3218 	ldr	r3, [pc, #536]	; 2b8 <LC0+0x8>
  9c:	e59f4218 	ldr	r4, [pc, #536]	; 2bc <LC0+0xc>
  a0:	e5834050 	str	r4, [r3, #80]	; 0x50
  a4:	e5935050 	ldr	r5, [r3, #80]	; 0x50
  a8:	e59f4210 	ldr	r4, [pc, #528]	; 2c0 <LC0+0x10>
  ac:	e5834054 	str	r4, [r3, #84]	; 0x54
  b0:	e5935054 	ldr	r5, [r3, #84]	; 0x54
  b4:	e3a04903 	mov	r4, #49152	; 0xc000
  b8:	e5834008 	str	r4, [r3, #8]
  bc:	e5935008 	ldr	r5, [r3, #8]
  c0:	e3a08801 	mov	r8, #65536	; 0x10000
  c4:	e2588001 	subs	r8, r8, #1
  c8:	124ff00c 	subne	pc, pc, #12
  cc:	e59f41f0 	ldr	r4, [pc, #496]	; 2c4 <LC0+0x14>
  d0:	e5834008 	str	r4, [r3, #8]
  d4:	e5935008 	ldr	r5, [r3, #8]
  d8:	e3a08801 	mov	r8, #65536	; 0x10000
  dc:	e2588001 	subs	r8, r8, #1
  e0:	124ff00c 	subne	pc, pc, #12
  e4:	e59f31dc 	ldr	r3, [pc, #476]	; 2c8 <LC0+0x18>
  e8:	e3a04c01 	mov	r4, #256	; 0x100
  ec:	e583404c 	str	r4, [r3, #76]	; 0x4c
  f0:	e593504c 	ldr	r5, [r3, #76]	; 0x4c
  f4:	e59f41d0 	ldr	r4, [pc, #464]	; 2cc <LC0+0x1c>
  f8:	e5834024 	str	r4, [r3, #36]	; 0x24
  fc:	e5935024 	ldr	r5, [r3, #36]	; 0x24
 100:	e59f31b0 	ldr	r3, [pc, #432]	; 2b8 <LC0+0x8>
 104:	e59f41c4 	ldr	r4, [pc, #452]	; 2d0 <LC0+0x20>
 108:	e583400c 	str	r4, [r3, #12]
 10c:	e593500c 	ldr	r5, [r3, #12]
 110:	e3a04000 	mov	r4, #0
 114:	e58340b0 	str	r4, [r3, #176]	; 0xb0
 118:	e59350b0 	ldr	r5, [r3, #176]	; 0xb0
 11c:	e59f31a4 	ldr	r3, [pc, #420]	; 2c8 <LC0+0x18>
 120:	e59f41ac 	ldr	r4, [pc, #428]	; 2d4 <LC0+0x24>
 124:	e5834000 	str	r4, [r3]
 128:	e5935000 	ldr	r5, [r3]
 12c:	e59f31a4 	ldr	r3, [pc, #420]	; 2d8 <LC0+0x28>
 130:	e59f41a4 	ldr	r4, [pc, #420]	; 2dc <LC0+0x2c>
 134:	e5834018 	str	r4, [r3, #24]
 138:	e5935018 	ldr	r5, [r3, #24]
 13c:	e59f319c 	ldr	r3, [pc, #412]	; 2e0 <LC0+0x30>
 140:	e3e04000 	mvn	r4, #0
 144:	e5834000 	str	r4, [r3]
 148:	e59f3194 	ldr	r3, [pc, #404]	; 2e4 <LC0+0x34>
 14c:	e3a04003 	mov	r4, #3
 150:	e5834000 	str	r4, [r3]
 154:	e59f318c 	ldr	r3, [pc, #396]	; 2e8 <LC0+0x38>
 158:	e3a0404f 	mov	r4, #79	; 0x4f
 15c:	e5834090 	str	r4, [r3, #144]	; 0x90
 160:	e3a0405f 	mov	r4, #95	; 0x5f
 164:	e5834034 	str	r4, [r3, #52]	; 0x34
 168:	e59f317c 	ldr	r3, [pc, #380]	; 2ec <LC0+0x3c>
 16c:	e3a04001 	mov	r4, #1
 170:	e5834074 	str	r4, [r3, #116]	; 0x74
 174:	e3a04001 	mov	r4, #1
 178:	e5834040 	str	r4, [r3, #64]	; 0x40
 17c:	e5934028 	ldr	r4, [r3, #40]	; 0x28
 180:	e284470a 	add	r4, r4, #2621440	; 0x280000
 184:	e5834004 	str	r4, [r3, #4]
 188:	e3a04001 	mov	r4, #1
 18c:	e5834084 	str	r4, [r3, #132]	; 0x84
 190:	e59f0158 	ldr	r0, [pc, #344]	; 2f0 <LC0+0x40>
 194:	e5901000 	ldr	r1, [r0]
 198:	e3c11040 	bic	r1, r1, #64	; 0x40
 19c:	e5801000 	str	r1, [r0]
 1a0:	e5902000 	ldr	r2, [r0]
 1a4:	e2822001 	add	r2, r2, #1
 1a8:	e59f0138 	ldr	r0, [pc, #312]	; 2e8 <LC0+0x38>
 1ac:	e3a01000 	mov	r1, #0
 1b0:	e5801004 	str	r1, [r0, #4]
 1b4:	e5801008 	str	r1, [r0, #8]
 1b8:	ee111f10 	mrc	15, 0, r1, cr1, cr0, {0}
 1bc:	e59f2130 	ldr	r2, [pc, #304]	; 2f4 <LC0+0x44>
 1c0:	e1c11002 	bic	r1, r1, r2
 1c4:	ee011f10 	mcr	15, 0, r1, cr1, cr0, {0}
 1c8:	e1a01001 	mov	r1, r1
 1cc:	e24ff004 	sub	pc, pc, #4
 1d0:	e3e01000 	mvn	r1, #0
 1d4:	ee031f10 	mcr	15, 0, r1, cr3, cr0, {0}
 1d8:	ee082f17 	mcr	15, 0, r2, cr8, cr7, {0}
 1dc:	ee071f9a 	mcr	15, 0, r1, cr7, cr10, {4}
 1e0:	e1a02002 	mov	r2, r2
 1e4:	e24ff004 	sub	pc, pc, #4

000001e8 <ContinueBoot>:
 1e8:	e59f0108 	ldr	r0, [pc, #264]	; 2f8 <LC0+0x48>
 1ec:	e3a01b0a 	mov	r1, #10240	; 0x2800
 1f0:	e1a02000 	mov	r2, r0
 1f4:	e0822001 	add	r2, r2, r1
 1f8:	e2422004 	sub	r2, r2, #4
 1fc:	e3a000d2 	mov	r0, #210	; 0xd2
 200:	e121f000 	msr	CPSR_c, r0
 204:	e3a01000 	mov	r1, #0
 208:	e1a08001 	mov	r8, r1
 20c:	e1a09001 	mov	r9, r1
 210:	e1a0b001 	mov	fp, r1
 214:	e1a0c001 	mov	ip, r1
 218:	e1a0d001 	mov	sp, r1
 21c:	e1a0e001 	mov	lr, r1
 220:	e1a0d002 	mov	sp, r2
 224:	e3a000d3 	mov	r0, #211	; 0xd3
 228:	e121f000 	msr	CPSR_c, r0
 22c:	e3a01000 	mov	r1, #0
 230:	e1a08001 	mov	r8, r1
 234:	e1a09001 	mov	r9, r1
 238:	e1a0b001 	mov	fp, r1
 23c:	e1a0c001 	mov	ip, r1
 240:	e1a0d001 	mov	sp, r1
 244:	e1a0e001 	mov	lr, r1
 248:	e2422c11 	sub	r2, r2, #4352	; 0x1100
 24c:	e1a0d002 	mov	sp, r2

00000250 <__CopyOBM>:
 250:	e3800c3f 	orr	r0, r0, #16128	; 0x3f00
 254:	ee0f0f11 	mcr	15, 0, r0, cr15, cr1, {0}
 258:	e1a00000 	nop			; (mov r0, r0)
 25c:	e1a00000 	nop			; (mov r0, r0)
 260:	e1a00000 	nop			; (mov r0, r0)
 264:	e1a00000 	nop			; (mov r0, r0)

00000268 <__JUMP_TO_C_CODE>:
 268:	e59f008c 	ldr	r0, [pc, #140]	; 2fc <LC0+0x4c>
 26c:	e59f108c 	ldr	r1, [pc, #140]	; 300 <LC0+0x50>
 270:	e59f308c 	ldr	r3, [pc, #140]	; 304 <LC0+0x54>
 274:	e3530000 	cmp	r3, #0
 278:	0a000004 	beq	290 <ClearBSS>

0000027c <MoveROMtoRAM>:
 27c:	e4902004 	ldr	r2, [r0], #4
 280:	e4812004 	str	r2, [r1], #4
 284:	e2533004 	subs	r3, r3, #4
 288:	e3530000 	cmp	r3, #0
 28c:	aafffffa 	bge	27c <MoveROMtoRAM>

00000290 <ClearBSS>:
 290:	e59f0070 	ldr	r0, [pc, #112]	; 308 <LC0+0x58>
 294:	e59f1070 	ldr	r1, [pc, #112]	; 30c <LC0+0x5c>
 298:	e3a02000 	mov	r2, #0

0000029c <WriteZeros>:
 29c:	e4802004 	str	r2, [r0], #4
 2a0:	e1510000 	cmp	r1, r0
 2a4:	aafffffc 	bge	29c <WriteZeros>
 2a8:	eafffffe 	b	0 <main>

000002ac <LOOPFOREVER>:
 2ac:	eafffffe 	b	2ac <LOOPFOREVER>

000002b0 <LC0>:
	...
 2b8:	d4050000 	strle	r0, [r5], #-0
 2bc:	91040664 	tstls	r4, r4, ror #12
 2c0:	84000030 	strhi	r0, [r0], #-48	; 0x30
 2c4:	0000c290 	muleq	r0, r0, r2
 2c8:	d4051000 	strle	r1, [r5], #-0
 2cc:	001effde 			; <UNDEFINED> instruction: 0x001effde
 2d0:	0001003f 	andeq	r0, r1, pc, lsr r0
 2d4:	be424000 	cdplt	0, 4, cr4, cr2, cr0, {0}
 2d8:	d4282800 	strtle	r2, [r8], #-2048	; 0x800
 2dc:	00300302 	eorseq	r0, r0, r2, lsl #6
 2e0:	d4051024 	strle	r1, [r5], #-36	; 0x24
 2e4:	d4015034 	strle	r5, [r1], #-52	; 0x34
 2e8:	d4282000 	strtle	r2, [r8], #-0
 2ec:	d4014000 	strle	r4, [r1], #-0
 2f0:	d4282c08 	strtle	r2, [r8], #-3080	; 0xc08
 2f4:	00003005 	andeq	r3, r0, r5
 2f8:	d1020000 	mrsle	r0, (UNDEF: 2)
	...

00000310 <TransferControl>:
 310:	e3e04007 	mvn	r4, #7
 314:	e0007004 	and	r7, r0, r4
 318:	e1a08001 	mov	r8, r1
 31c:	e0029004 	and	r9, r2, r4
 320:	e1a0a003 	mov	sl, r3
 324:	e59f4020 	ldr	r4, [pc, #32]	; 34c <bc_cd1+0x14>
 328:	e59f2020 	ldr	r2, [pc, #32]	; 350 <bc_cd1+0x18>
 32c:	e0422004 	sub	r2, r2, r4
 330:	e3a01a5f 	mov	r1, #389120	; 0x5f000
 334:	e1a05001 	mov	r5, r1

00000338 <bc_cd1>:
 338:	e4943004 	ldr	r3, [r4], #4
 33c:	e4813004 	str	r3, [r1], #4
 340:	e2522004 	subs	r2, r2, #4
 344:	1afffffb 	bne	338 <bc_cd1>
 348:	e1a0f005 	mov	pc, r5
 34c:	00000354 	andeq	r0, r0, r4, asr r3
 350:	000003d4 	ldrdeq	r0, [r0], -r4

00000354 <__TransferControlCode>:
 354:	ee111f10 	mrc	15, 0, r1, cr1, cr0, {0}
 358:	e3a02a03 	mov	r2, #12288	; 0x3000
 35c:	e3822005 	orr	r2, r2, #5
 360:	e1c11002 	bic	r1, r1, r2
 364:	ee011f10 	mcr	15, 0, r1, cr1, cr0, {0}
 368:	e1a01001 	mov	r1, r1
 36c:	e24ff004 	sub	pc, pc, #4
 370:	e3e01000 	mvn	r1, #0
 374:	ee031f10 	mcr	15, 0, r1, cr3, cr0, {0}
 378:	ee082f17 	mcr	15, 0, r2, cr8, cr7, {0}
 37c:	ee071f9a 	mcr	15, 0, r1, cr7, cr10, {4}
 380:	e1a02002 	mov	r2, r2
 384:	e24ff004 	sub	pc, pc, #4
 388:	e1570009 	cmp	r7, r9
 38c:	0a00000f 	beq	3d0 <__JumpToBootImage>
 390:	9a000008 	bls	3b8 <__CopyFromStart>
 394:	e0891008 	add	r1, r9, r8
 398:	e1570001 	cmp	r7, r1
 39c:	8a000005 	bhi	3b8 <__CopyFromStart>

000003a0 <__CopyFromEnd>:
 3a0:	e2488004 	sub	r8, r8, #4
 3a4:	e7993008 	ldr	r3, [r9, r8]
 3a8:	e7873008 	str	r3, [r7, r8]
 3ac:	e3580000 	cmp	r8, #0
 3b0:	cafffffa 	bgt	3a0 <__CopyFromEnd>
 3b4:	ea000005 	b	3d0 <__JumpToBootImage>

000003b8 <__CopyFromStart>:
 3b8:	e4993004 	ldr	r3, [r9], #4
 3bc:	e4873004 	str	r3, [r7], #4
 3c0:	e2488004 	sub	r8, r8, #4
 3c4:	e3580000 	cmp	r8, #0
 3c8:	cafffffa 	bgt	3b8 <__CopyFromStart>
 3cc:	eaffffff 	b	3d0 <__JumpToBootImage>

000003d0 <__JumpToBootImage>:
 3d0:	e1a0f000 	mov	pc, r0

000003d4 <SaveProgramState>:
 3d4:	e10fc000 	mrs	ip, CPSR
 3d8:	e38cc080 	orr	ip, ip, #128	; 0x80
 3dc:	e121f00c 	msr	CPSR_c, ip
 3e0:	e8bd5fff 	pop	{r0, r1, r2, r3, r4, r5, r6, r7, r8, r9, sl, fp, ip, lr}
 3e4:	e16ff00e 	msr	SPSR_fsxc, lr
 3e8:	e8fd8000 	ldm	sp!, {pc}^

000003ec <VectorRedirector>:
 3ec:	e59ff058 	ldr	pc, [pc, #88]	; 44c <ObmXsGetDebuggerStatus+0xc>

000003f0 <SetInterruptVector>:
 3f0:	e92d401f 	push	{r0, r1, r2, r3, r4, lr}
 3f4:	e3a01000 	mov	r1, #0
 3f8:	e5810078 	str	r0, [r1, #120]	; 0x78
 3fc:	e59f2044 	ldr	r2, [pc, #68]	; 448 <ObmXsGetDebuggerStatus+0x8>
 400:	e5920000 	ldr	r0, [r2]
 404:	e5810018 	str	r0, [r1, #24]
 408:	e8bd801f 	pop	{r0, r1, r2, r3, r4, pc}

0000040c <EnableIrqInterrupts>:
 40c:	e92d401f 	push	{r0, r1, r2, r3, r4, lr}
 410:	e10f0000 	mrs	r0, CPSR
 414:	e3c00080 	bic	r0, r0, #128	; 0x80
 418:	e129f000 	msr	CPSR_fc, r0
 41c:	e8bd801f 	pop	{r0, r1, r2, r3, r4, pc}

00000420 <DisableIrqInterrupts>:
 420:	e92d401f 	push	{r0, r1, r2, r3, r4, lr}
 424:	e10f0000 	mrs	r0, CPSR
 428:	e3800080 	orr	r0, r0, #128	; 0x80
 42c:	e129f000 	msr	CPSR_fc, r0
 430:	e8bd801f 	pop	{r0, r1, r2, r3, r4, pc}

00000434 <raise>:
 434:	eafffffe 	b	434 <raise>

00000438 <ObmXsGetProcessorVersion>:
 438:	ee100f10 	mrc	15, 0, r0, cr0, cr0, {0}
 43c:	e12fff1e 	bx	lr

00000440 <ObmXsGetDebuggerStatus>:
 440:	ee1a0e10 	mrc	14, 0, r0, cr10, cr0, {0}
 444:	e12fff1e 	bx	lr
 448:	000003ec 	andeq	r0, r0, ip, ror #7
 44c:	e1a00000 	nop			; (mov r0, r0)
 450:	e1a00000 	nop			; (mov r0, r0)
 454:	e1a00000 	nop			; (mov r0, r0)
 458:	e1a00000 	nop			; (mov r0, r0)
 45c:	e1a00000 	nop			; (mov r0, r0)

Disassembly of section .ARM.attributes:

00000000 <.ARM.attributes>:
   0:	00001a41 	andeq	r1, r0, r1, asr #20
   4:	61656100 	cmnvs	r5, r0, lsl #2
   8:	01006962 	tsteq	r0, r2, ror #18
   c:	00000010 	andeq	r0, r0, r0, lsl r0
  10:	45543505 	ldrbmi	r3, [r4, #-1285]	; 0x505
  14:	08040600 	stmdaeq	r4, {r9, sl}
  18:	Address 0x00000018 is out of bounds.


Disassembly of section .debug_line:

00000000 <.debug_line>:
   0:	00000192 	muleq	r0, r2, r1
   4:	002c0002 	eoreq	r0, ip, r2
   8:	01020000 	mrseq	r0, (UNDEF: 2)
   c:	000d0efb 	strdeq	r0, [sp], -fp
  10:	01010101 	tsteq	r1, r1, lsl #2
  14:	01000000 	mrseq	r0, (UNDEF: 0)
  18:	73010000 	movwvc	r0, #4096	; 0x1000
  1c:	735c6372 	cmpvc	ip, #-939524095	; 0xc8000001
  20:	74726174 	ldrbtvc	r6, [r2], #-372	; 0x174
  24:	00007075 	andeq	r7, r0, r5, ror r0
  28:	72617473 	rsbvc	r7, r1, #1929379840	; 0x73000000
  2c:	2e707574 	mrccs	5, 3, r7, cr0, cr4, {3}
  30:	00010053 	andeq	r0, r1, r3, asr r0
  34:	05000000 	streq	r0, [r0, #-0]
  38:	00000002 	andeq	r0, r0, r2
  3c:	013b0300 	teqeq	fp, r0, lsl #6
  40:	2f2f2f2f 	svccs	0x002f2f2f
  44:	302f2f2f 	eorcc	r2, pc, pc, lsr #30
  48:	0200d203 	andeq	sp, r0, #805306368	; 0x30000000
  4c:	2f2f0130 	svccs	0x002f0130
  50:	032f2f34 	teqeq	pc, #52, 30	; 0xd0
  54:	032f2e0d 	teqeq	pc, #13, 28	; 0xd0
  58:	352f2e0d 	strcc	r2, [pc, #-3597]!	; fffff253 <_BOOTROM_VER_ADDR+0xf22f>
  5c:	2f2e1103 	svccs	0x002e1103
  60:	2e090334 	mcrcs	3, 0, r0, cr9, cr4, {1}
  64:	036c302f 	cmneq	ip, #47	; 0x2f
  68:	302f2e09 	eorcc	r2, pc, r9, lsl #28
  6c:	1b03306b 	blne	cc220 <ISRAM_SIZE+0xac220>
  70:	03342f2e 	teqeq	r4, #46, 30	; 0xb8
  74:	34312e19 	ldrtcc	r2, [r1], #-3609	; 0xe19
  78:	332f342f 	teqcc	pc, #788529152	; 0x2f000000
  7c:	2f322f32 	svccs	0x00322f32
  80:	2f2e1803 	svccs	0x002e1803
  84:	0b032f32 	bleq	cbd54 <ISRAM_SIZE+0xabd54>
  88:	18032f2e 	stmdane	r3, {r1, r2, r3, r5, r8, r9, sl, fp, sp}
  8c:	302f2f2e 	eorcc	r2, pc, lr, lsr #30
  90:	2f322f2f 	svccs	0x00322f2f
  94:	332f302f 	teqcc	pc, #47	; 0x2f
  98:	2f312f32 	svccs	0x00312f32
  9c:	322f2f31 	eorcc	r2, pc, #49, 30	; 0xc4
  a0:	00dd032f 	sbcseq	r0, sp, pc, lsr #6
  a4:	2f2f2f2e 	svccs	0x002f2f2e
  a8:	2f352f30 	svccs	0x00352f30
  ac:	18032f2f 	stmdane	r3, {r0, r1, r2, r3, r5, r8, r9, sl, fp, sp}
  b0:	2f2f2f2e 	svccs	0x002f2f2e
  b4:	2f322f2f 	svccs	0x00322f2f
  b8:	2f2f2f2f 	svccs	0x002f2f2f
  bc:	2f2e2503 	svccs	0x002e2503
  c0:	312f2f30 	teqcc	pc, r0, lsr pc	; <UNPREDICTABLE>
  c4:	2f2f302f 	svccs	0x002f302f
  c8:	2f2f2f30 	svccs	0x002f2f30
  cc:	302f312f 	eorcc	r3, pc, pc, lsr #2
  d0:	2f302f2f 	svccs	0x00302f2f
  d4:	2f2f2f2f 	svccs	0x002f2f2f
  d8:	2e00ce03 	cdpcs	14, 0, cr12, cr0, cr3, {0}
  dc:	2f2f2f2f 	svccs	0x002f2f2f
  e0:	2e31032f 	cdpcs	3, 3, cr0, cr1, cr15, {1}
  e4:	2f2f2f2f 	svccs	0x002f2f2f
  e8:	2f2f2f30 	svccs	0x002f2f30
  ec:	2f2f312f 	svccs	0x002f312f
  f0:	032f2f30 	teqeq	pc, #48, 30	; 0xc0
  f4:	03302e2a 	teqeq	r0, #672	; 0x2a0
  f8:	2f667acc 	svccs	0x00667acc
  fc:	032e1503 	teqeq	lr, #12582912	; 0xc00000
 100:	11032e2a 	tstne	r3, sl, lsr #28
 104:	2e24032e 	cdpcs	3, 2, cr0, cr4, cr14, {1}
 108:	032e2303 	teqeq	lr, #201326592	; 0xc000000
 10c:	1d032e16 	stcne	14, cr2, [r3, #-88]	; 0xffffffa8
 110:	24032f2e 	strcs	r2, [r3], #-3886	; 0xf2e
 114:	0334322e 	teqeq	r4, #-536870910	; 0xe0000002
 118:	f0032e0a 			; <UNDEFINED> instruction: 0xf0032e0a
 11c:	29032e00 	stmdbcs	r3, {r9, sl, fp, sp}
 120:	2e32032e 	cdpcs	3, 3, cr0, cr2, cr14, {1}
 124:	2e01a603 	cfmadd32cs	mvax0, mvfx10, mvfx1, mvfx3
 128:	0b032f2f 	bleq	cbdec <ISRAM_SIZE+0xabdec>
 12c:	a0032f2e 	andge	r2, r3, lr, lsr #30
 130:	2f2f2e01 	svccs	0x002f2e01
 134:	2f302f2f 	svccs	0x00302f2f
 138:	3431302f 	ldrtcc	r3, [r1], #-47	; 0x2f
 13c:	2f2f2f2f 	svccs	0x002f2f2f
 140:	2f2e6f03 	svccs	0x002e6f03
 144:	2f2e1b03 	svccs	0x002e1b03
 148:	2f2f2f2f 	svccs	0x002f2f2f
 14c:	2f2f312f 	svccs	0x002f312f
 150:	342f2f2f 	strtcc	r2, [pc], #-3887	; 158 <.debug_line+0x158>
 154:	2f2f2f2f 	svccs	0x002f2f2f
 158:	2f2f312f 	svccs	0x002f312f
 15c:	312f2f2f 	teqcc	pc, pc, lsr #30
 160:	2f2f2f2f 	svccs	0x002f2f2f
 164:	1803312f 	stmdane	r3, {r0, r1, r2, r3, r5, r8, ip, sp}
 168:	302f2f2e 	eorcc	r2, pc, lr, lsr #30
 16c:	03362f2f 	teqeq	r6, #47, 30	; 0xbc
 170:	2f322e0c 	svccs	0x00322e0c
 174:	322f2f32 	eorcc	r2, pc, #50, 30	; 0xc8
 178:	2f2f2f36 	svccs	0x002f2f36
 17c:	2f2f352f 	svccs	0x002f352f
 180:	0a032f2f 	beq	cbe44 <ISRAM_SIZE+0xabe44>
 184:	2e1a032e 	cdpcs	3, 1, cr0, cr10, cr14, {1}
 188:	2e120330 	mrccs	3, 0, r0, cr2, cr0, {1}
 18c:	7fa90330 	svcvc	0x00a90330
 190:	0002022e 	andeq	r0, r2, lr, lsr #4
 194:	Address 0x00000194 is out of bounds.


Disassembly of section .debug_info:

00000000 <.debug_info>:
   0:	0000006c 	andeq	r0, r0, ip, rrx
   4:	00000002 	andeq	r0, r0, r2
   8:	01040000 	mrseq	r0, (UNDEF: 4)
	...
  14:	0000044c 	andeq	r0, r0, ip, asr #8
  18:	5c637273 	sfmpl	f7, 2, [r3], #-460	; 0xfffffe34
  1c:	72617473 	rsbvc	r7, r1, #1929379840	; 0x73000000
  20:	2f707574 	svccs	0x00707574
  24:	72617473 	rsbvc	r7, r1, #1929379840	; 0x73000000
  28:	2e707574 	mrccs	5, 3, r7, cr0, cr4, {3}
  2c:	3a450053 	bcc	1140180 <ISRAM_SIZE+0x1120180>
  30:	726f575c 	rsbvc	r5, pc, #92, 14	; 0x1700000
  34:	6170736b 	cmnvs	r0, fp, ror #6
  38:	455c6563 	ldrbmi	r6, [ip, #-1379]	; 0x563
  3c:	6f6c426d 	svcvs	0x006c426d
  40:	5c736b63 	ldclpl	11, cr6, [r3], #-396	; 0xfffffe74
  44:	31415850 	cmpcc	r1, r0, asr r8
  48:	425c3836 	subsmi	r3, ip, #3538944	; 0x360000
  4c:	6c746f6f 	ldclvs	15, cr6, [r4], #-444	; 0xfffffe44
  50:	6564616f 	strbvs	r6, [r4, #-367]!	; 0x16f
  54:	61425f72 	hvcvs	9714	; 0x25f2
  58:	6f6f626d 	svcvs	0x006f626d
  5c:	74694c5f 	strbtvc	r4, [r9], #-3167	; 0xc5f
  60:	4e470065 	cdpmi	0, 4, cr0, cr7, cr5, {3}
  64:	53412055 	movtpl	r2, #4181	; 0x1055
  68:	322e3220 	eorcc	r3, lr, #32, 4
  6c:	80010034 	andhi	r0, r1, r4, lsr r0

Disassembly of section .debug_abbrev:

00000000 <.debug_abbrev>:
   0:	10001101 	andne	r1, r0, r1, lsl #2
   4:	12011106 	andne	r1, r1, #-2147483647	; 0x80000001
   8:	1b080301 	blne	200c14 <ISRAM_SIZE+0x1e0c14>
   c:	13082508 	movwne	r2, #34056	; 0x8508
  10:	00000005 	andeq	r0, r0, r5

Disassembly of section .debug_aranges:

00000000 <.debug_aranges>:
   0:	0000001c 	andeq	r0, r0, ip, lsl r0
   4:	00000002 	andeq	r0, r0, r2
   8:	00040000 	andeq	r0, r4, r0
	...
  14:	0000044c 	andeq	r0, r0, ip, asr #8
	...
